(dp0
S'rap'
p1
(dp2
S'booty bass'
p3
I01
sS'underground rap'
p4
I01
sS'bass'
p5
I01
sS'freestyle'
p6
I01
sS'east coast rap'
p7
I01
sS'christian gangsta rap'
p8
I01
sS'beat'
p9
I01
sS'underground hip-hop'
p10
I01
sS'rap'
p11
I01
sS'gangsta rap'
p12
I01
sS'dirty south'
p13
I01
sS'west coast rap'
p14
I01
sS'hip-hop'
p15
I01
ss.